target datalayout = "e-m:e-p270:32:32-p271:32:32-p272:64:64-i64:64-i128:128-f80:128-n8:16:32:64-S128"
target triple = "x86_64-pc-linux-gnu"

%struct._generic_SUNAdaptController_Ops = type { ptr, ptr, ptr, ptr, ptr, ptr, ptr, ptr, ptr, ptr, ptr }
%struct._generic_SUNAdaptController = type { ptr, ptr, ptr }

; Function Attrs: nounwind uwtable
define i32 @SUNAdaptController_SetDefaults(ptr noundef %0) #0 {
  %2 = alloca i32, align 4
  %3 = alloca ptr, align 8
  %4 = alloca i32, align 4
  %5 = alloca i32, align 4
  %6 = alloca ptr, align 8
  store ptr %0, ptr %3, align 8, !tbaa !8
  call void @llvm.lifetime.start.p0(i64 4, ptr %4) #4
  store i32 0, ptr %4, align 4, !tbaa !30
  %7 = load ptr, ptr %3, align 8, !tbaa !8
  %8 = icmp eq ptr %7, null
  br i1 %8, label %9, label %10

9:                                                ; preds = %1
  store i32 -9999, ptr %2, align 4
  store i32 1, ptr %5, align 4
  br label %30

10:                                               ; preds = %1
  call void @llvm.lifetime.start.p0(i64 8, ptr %6) #4
  %11 = load ptr, ptr %3, align 8, !tbaa !8
  %12 = getelementptr inbounds nuw %struct._generic_SUNAdaptController, ptr %11, i32 0, i32 2
  %13 = load ptr, ptr %12, align 8, !tbaa !27
  store ptr %13, ptr %6, align 8, !tbaa !3
  %14 = load ptr, ptr %3, align 8, !tbaa !8
  %15 = getelementptr inbounds nuw %struct._generic_SUNAdaptController, ptr %14, i32 0, i32 1
  %16 = load ptr, ptr %15, align 8, !tbaa !24
  %17 = getelementptr inbounds nuw %struct._generic_SUNAdaptController_Ops, ptr %16, i32 0, i32 5
  %18 = load ptr, ptr %17, align 8, !tbaa !18
  %19 = icmp ne ptr %18, null
  br i1 %19, label %20, label %28

20:                                               ; preds = %10
  %21 = load ptr, ptr %3, align 8, !tbaa !8
  %22 = getelementptr inbounds nuw %struct._generic_SUNAdaptController, ptr %21, i32 0, i32 1
  %23 = load ptr, ptr %22, align 8, !tbaa !24
  %24 = getelementptr inbounds nuw %struct._generic_SUNAdaptController_Ops, ptr %23, i32 0, i32 5
  %25 = load ptr, ptr %24, align 8, !tbaa !18
  %26 = load ptr, ptr %3, align 8, !tbaa !8
  %27 = call i32 %25(ptr noundef %26)
  store i32 %27, ptr %4, align 4, !tbaa !30
  br label %28

28:                                               ; preds = %20, %10
  %29 = load i32, ptr %4, align 4, !tbaa !30
  store i32 %29, ptr %2, align 4
  store i32 1, ptr %5, align 4
  call void @llvm.lifetime.end.p0(i64 8, ptr %6) #4
  br label %30

30:                                               ; preds = %28, %9
  call void @llvm.lifetime.end.p0(i64 4, ptr %4) #4
  %31 = load i32, ptr %2, align 4
  ret i32 %31
}